target datalayout = "e-m:e-p270:32:32-p271:32:32-p272:64:64-i64:64-i128:128-f80:128-n8:16:32:64-S128"
target triple = "x86_64-unknown-linux-gnu"

%class.ptr_vector = type { %class.vector }
%class.vector = type { ptr }
%"class.spacer::model_search" = type { i8, ptr, ptr, %class.vector.7 }
%class.vector.7 = type { ptr }
%"struct.obj_map<expr, ptr_vector<spacer::model_node>>::key_data" = type { ptr, %class.ptr_vector }
%class.obj_map = type { %class.core_hashtable }
%class.core_hashtable = type <{ ptr, i32, i32, i32, [4 x i8] }>
%"class.obj_map<expr, ptr_vector<spacer::model_node>>::obj_map_entry" = type { %"struct.obj_map<expr, ptr_vector<spacer::model_node>>::key_data" }

; Function Attrs: mustprogress uwtable
define linkonce_odr hidden void @_ZN6vectorIPN6spacer10model_nodeELb0EjE11free_memoryEv(ptr noundef nonnull align 8 dereferenceable(8) %this) #4 comdat align 2 {
entry:
  %this.addr = alloca ptr, align 8
  store ptr %this, ptr %this.addr, align 8
  %this1 = load ptr, ptr %this.addr, align 8
  %m_data = getelementptr inbounds %class.vector, ptr %this1, i32 0, i32 0
  %0 = load ptr, ptr %m_data, align 8
  %add.ptr = getelementptr inbounds i32, ptr %0, i64 -2
  call void @_ZN6memory10deallocateEPv(ptr noundef %add.ptr)
  ret void
}

; Function Attrs: mustprogress uwtable
define linkonce_odr hidden void @_ZN6vectorIPN6spacer10model_nodeELb0EjE7destroyEv(ptr noundef nonnull align 8 dereferenceable(8) %this) #4 comdat align 2 {
entry:
  %this.addr = alloca ptr, align 8
  store ptr %this, ptr %this.addr, align 8
  %this1 = load ptr, ptr %this.addr, align 8
  %m_data = getelementptr inbounds %class.vector, ptr %this1, i32 0, i32 0
  %0 = load ptr, ptr %m_data, align 8
  %tobool = icmp ne ptr %0, null
  br i1 %tobool, label %if.then, label %if.end

if.then:                                          ; preds = %entry
  call void @_ZN6vectorIPN6spacer10model_nodeELb0EjE11free_memoryEv(ptr noundef nonnull align 8 dereferenceable(8) %this1)
  br label %if.end

if.end:                                           ; preds = %if.then, %entry
  ret void
}

; Function Attrs: mustprogress nounwind uwtable
define linkonce_odr hidden void @_ZN6vectorIPN6spacer10model_nodeELb0EjED2Ev(ptr noundef nonnull align 8 dereferenceable(8) %this) unnamed_addr #5 comdat align 2 personality ptr @__gxx_personality_v0 {
entry:
  %this.addr = alloca ptr, align 8
  store ptr %this, ptr %this.addr, align 8
  %this1 = load ptr, ptr %this.addr, align 8
  invoke void @_ZN6vectorIPN6spacer10model_nodeELb0EjE7destroyEv(ptr noundef nonnull align 8 dereferenceable(8) %this1)
          to label %invoke.cont unwind label %terminate.lpad

invoke.cont:                                      ; preds = %entry
  ret void

terminate.lpad:                                   ; preds = %entry
  %0 = landingpad { ptr, i32 }
          catch ptr null
  %1 = extractvalue { ptr, i32 } %0, 0
  call void @__clang_call_terminate(ptr %1) #13
  unreachable
}

; Function Attrs: mustprogress nounwind uwtable
define linkonce_odr hidden void @_ZN10ptr_vectorIN6spacer10model_nodeEED2Ev(ptr noundef nonnull align 8 dereferenceable(8) %this) unnamed_addr #5 comdat align 2 {
entry:
  %this.addr = alloca ptr, align 8
  store ptr %this, ptr %this.addr, align 8
  %this1 = load ptr, ptr %this.addr, align 8
  call void @_ZN6vectorIPN6spacer10model_nodeELb0EjED2Ev(ptr noundef nonnull align 8 dereferenceable(8) %this1) #3
  ret void
}

; Function Attrs: mustprogress nounwind uwtable
define linkonce_odr hidden void @_ZN7obj_mapI4expr10ptr_vectorIN6spacer10model_nodeEEE8key_dataD2Ev(ptr noundef nonnull align 8 dereferenceable(16) %this) unnamed_addr #5 comdat align 2 {
entry:
  %this.addr = alloca ptr, align 8
  store ptr %this, ptr %this.addr, align 8
  %this1 = load ptr, ptr %this.addr, align 8
  %m_value = getelementptr inbounds %"struct.obj_map<expr, ptr_vector<spacer::model_node>>::key_data", ptr %this1, i32 0, i32 1
  call void @_ZN10ptr_vectorIN6spacer10model_nodeEED2Ev(ptr noundef nonnull align 8 dereferenceable(8) %m_value) #3
  ret void
}

; Function Attrs: mustprogress nounwind uwtable
define linkonce_odr hidden void @_ZN7obj_mapI4expr10ptr_vectorIN6spacer10model_nodeEEE13obj_map_entryD2Ev(ptr noundef nonnull align 8 dereferenceable(16) %this) unnamed_addr #5 comdat align 2 {
entry:
  %this.addr = alloca ptr, align 8
  store ptr %this, ptr %this.addr, align 8
  %this1 = load ptr, ptr %this.addr, align 8
  %m_data = getelementptr inbounds %"class.obj_map<expr, ptr_vector<spacer::model_node>>::obj_map_entry", ptr %this1, i32 0, i32 0
  call void @_ZN7obj_mapI4expr10ptr_vectorIN6spacer10model_nodeEEE8key_dataD2Ev(ptr noundef nonnull align 8 dereferenceable(16) %m_data) #3
  ret void
}

; Function Attrs: mustprogress uwtable
define linkonce_odr hidden void @_Z12dealloc_vectIN7obj_mapI4expr10ptr_vectorIN6spacer10model_nodeEEE13obj_map_entryEEvPT_j(ptr noundef %ptr, i32 noundef %sz) #4 comdat {
entry:
  %ptr.addr = alloca ptr, align 8
  %sz.addr = alloca i32, align 4
  %curr = alloca ptr, align 8
  %i = alloca i32, align 4
  store ptr %ptr, ptr %ptr.addr, align 8
  store i32 %sz, ptr %sz.addr, align 4
  %0 = load ptr, ptr %ptr.addr, align 8
  %cmp = icmp eq ptr %0, null
  br i1 %cmp, label %if.then, label %if.end

if.then:                                          ; preds = %entry
  br label %return

if.end:                                           ; preds = %entry
  %1 = load ptr, ptr %ptr.addr, align 8
  store ptr %1, ptr %curr, align 8
  store i32 0, ptr %i, align 4
  br label %for.cond

for.cond:                                         ; preds = %for.inc, %if.end
  %2 = load i32, ptr %i, align 4
  %3 = load i32, ptr %sz.addr, align 4
  %cmp1 = icmp ult i32 %2, %3
  br i1 %cmp1, label %for.body, label %for.end

for.body:                                         ; preds = %for.cond
  %4 = load ptr, ptr %curr, align 8
  call void @_ZN7obj_mapI4expr10ptr_vectorIN6spacer10model_nodeEEE13obj_map_entryD2Ev(ptr noundef nonnull align 8 dereferenceable(16) %4) #3
  br label %for.inc

for.inc:                                          ; preds = %for.body
  %5 = load i32, ptr %i, align 4
  %inc = add i32 %5, 1
  store i32 %inc, ptr %i, align 4
  %6 = load ptr, ptr %curr, align 8
  %incdec.ptr = getelementptr inbounds %"class.obj_map<expr, ptr_vector<spacer::model_node>>::obj_map_entry", ptr %6, i32 1
  store ptr %incdec.ptr, ptr %curr, align 8
  br label %for.cond, !llvm.loop !25

for.end:                                          ; preds = %for.cond
  %7 = load ptr, ptr %ptr.addr, align 8
  call void @_ZN6memory10deallocateEPv(ptr noundef %7)
  br label %return

return:                                           ; preds = %for.end, %if.then
  ret void
}

; Function Attrs: mustprogress uwtable
define linkonce_odr hidden void @_ZN14core_hashtableIN7obj_mapI4expr10ptr_vectorIN6spacer10model_nodeEEE13obj_map_entryE8obj_hashINS6_8key_dataEE10default_eqIS9_EE12delete_tableEv(ptr noundef nonnull align 8 dereferenceable(20) %this) #4 comdat align 2 {
entry:
  %this.addr = alloca ptr, align 8
  store ptr %this, ptr %this.addr, align 8
  %this1 = load ptr, ptr %this.addr, align 8
  %m_table = getelementptr inbounds %class.core_hashtable, ptr %this1, i32 0, i32 0
  %0 = load ptr, ptr %m_table, align 8
  %m_capacity = getelementptr inbounds %class.core_hashtable, ptr %this1, i32 0, i32 1
  %1 = load i32, ptr %m_capacity, align 8
  call void @_Z12dealloc_vectIN7obj_mapI4expr10ptr_vectorIN6spacer10model_nodeEEE13obj_map_entryEEvPT_j(ptr noundef %0, i32 noundef %1)
  %m_table2 = getelementptr inbounds %class.core_hashtable, ptr %this1, i32 0, i32 0
  store ptr null, ptr %m_table2, align 8
  ret void
}

; Function Attrs: mustprogress nounwind uwtable
define linkonce_odr hidden void @_ZN14core_hashtableIN7obj_mapI4expr10ptr_vectorIN6spacer10model_nodeEEE13obj_map_entryE8obj_hashINS6_8key_dataEE10default_eqIS9_EED2Ev(ptr noundef nonnull align 8 dereferenceable(20) %this) unnamed_addr #5 comdat align 2 personality ptr @__gxx_personality_v0 {
entry:
  %this.addr = alloca ptr, align 8
  store ptr %this, ptr %this.addr, align 8
  %this1 = load ptr, ptr %this.addr, align 8
  invoke void @_ZN14core_hashtableIN7obj_mapI4expr10ptr_vectorIN6spacer10model_nodeEEE13obj_map_entryE8obj_hashINS6_8key_dataEE10default_eqIS9_EE12delete_tableEv(ptr noundef nonnull align 8 dereferenceable(20) %this1)
          to label %invoke.cont unwind label %terminate.lpad

invoke.cont:                                      ; preds = %entry
  ret void

terminate.lpad:                                   ; preds = %entry
  %0 = landingpad { ptr, i32 }
          catch ptr null
  %1 = extractvalue { ptr, i32 } %0, 0
  call void @__clang_call_terminate(ptr %1) #13
  unreachable
}

; Function Attrs: mustprogress nounwind uwtable
define linkonce_odr hidden void @_ZN7obj_mapI4expr10ptr_vectorIN6spacer10model_nodeEEED2Ev(ptr noundef nonnull align 8 dereferenceable(24) %this) unnamed_addr #5 comdat align 2 {
entry:
  %this.addr = alloca ptr, align 8
  store ptr %this, ptr %this.addr, align 8
  %this1 = load ptr, ptr %this.addr, align 8
  %m_table = getelementptr inbounds %class.obj_map, ptr %this1, i32 0, i32 0
  call void @_ZN14core_hashtableIN7obj_mapI4expr10ptr_vectorIN6spacer10model_nodeEEE13obj_map_entryE8obj_hashINS6_8key_dataEE10default_eqIS9_EED2Ev(ptr noundef nonnull align 8 dereferenceable(20) %m_table) #3
  ret void
}

; Function Attrs: mustprogress nounwind uwtable
define linkonce_odr hidden void @_ZSt8_DestroyI7obj_mapI4expr10ptr_vectorIN6spacer10model_nodeEEEEvPT_(ptr noundef %__pointer) #5 comdat {
entry:
  %__pointer.addr = alloca ptr, align 8
  store ptr %__pointer, ptr %__pointer.addr, align 8
  %0 = load ptr, ptr %__pointer.addr, align 8
  call void @_ZN7obj_mapI4expr10ptr_vectorIN6spacer10model_nodeEEED2Ev(ptr noundef nonnull align 8 dereferenceable(24) %0) #3
  ret void
}

; Function Attrs: mustprogress uwtable
define linkonce_odr hidden noundef ptr @_ZNSt14_Destroy_n_auxILb0EE11__destroy_nIP7obj_mapI4expr10ptr_vectorIN6spacer10model_nodeEEEjEET_SA_T0_(ptr noundef %__first, i32 noundef %__count) #4 comdat align 2 {
entry:
  %__first.addr = alloca ptr, align 8
  %__count.addr = alloca i32, align 4
  store ptr %__first, ptr %__first.addr, align 8
  store i32 %__count, ptr %__count.addr, align 4
  br label %for.cond

for.cond:                                         ; preds = %for.inc, %entry
  %0 = load i32, ptr %__count.addr, align 4
  %cmp = icmp ugt i32 %0, 0
  br i1 %cmp, label %for.body, label %for.end

for.body:                                         ; preds = %for.cond
  %1 = load ptr, ptr %__first.addr, align 8
  call void @_ZSt8_DestroyI7obj_mapI4expr10ptr_vectorIN6spacer10model_nodeEEEEvPT_(ptr noundef %1)
  br label %for.inc

for.inc:                                          ; preds = %for.body
  %2 = load ptr, ptr %__first.addr, align 8
  %incdec.ptr = getelementptr inbounds %class.obj_map, ptr %2, i32 1
  store ptr %incdec.ptr, ptr %__first.addr, align 8
  %3 = load i32, ptr %__count.addr, align 4
  %dec = add i32 %3, -1
  store i32 %dec, ptr %__count.addr, align 4
  br label %for.cond, !llvm.loop !24

for.end:                                          ; preds = %for.cond
  %4 = load ptr, ptr %__first.addr, align 8
  ret ptr %4
}

; Function Attrs: mustprogress uwtable
define linkonce_odr hidden noundef ptr @_ZSt10_Destroy_nIP7obj_mapI4expr10ptr_vectorIN6spacer10model_nodeEEEjET_S8_T0_(ptr noundef %__first, i32 noundef %__count) #4 comdat {
entry:
  %__first.addr = alloca ptr, align 8
  %__count.addr = alloca i32, align 4
  store ptr %__first, ptr %__first.addr, align 8
  store i32 %__count, ptr %__count.addr, align 4
  %0 = load ptr, ptr %__first.addr, align 8
  %1 = load i32, ptr %__count.addr, align 4
  %call = call noundef ptr @_ZNSt14_Destroy_n_auxILb0EE11__destroy_nIP7obj_mapI4expr10ptr_vectorIN6spacer10model_nodeEEEjEET_SA_T0_(ptr noundef %0, i32 noundef %1)
  ret ptr %call
}

; Function Attrs: mustprogress uwtable
define linkonce_odr hidden noundef ptr @_ZSt9destroy_nIP7obj_mapI4expr10ptr_vectorIN6spacer10model_nodeEEEjET_S8_T0_(ptr noundef %__first, i32 noundef %__count) #4 comdat {
entry:
  %__first.addr = alloca ptr, align 8
  %__count.addr = alloca i32, align 4
  store ptr %__first, ptr %__first.addr, align 8
  store i32 %__count, ptr %__count.addr, align 4
  %0 = load ptr, ptr %__first.addr, align 8
  %1 = load i32, ptr %__count.addr, align 4
  %call = call noundef ptr @_ZSt10_Destroy_nIP7obj_mapI4expr10ptr_vectorIN6spacer10model_nodeEEEjET_S8_T0_(ptr noundef %0, i32 noundef %1)
  ret ptr %call
}

; Function Attrs: mustprogress nounwind uwtable
define linkonce_odr hidden noundef i32 @_ZNK6vectorI7obj_mapI4expr10ptr_vectorIN6spacer10model_nodeEEELb1EjE4sizeEv(ptr noundef nonnull align 8 dereferenceable(8) %this) #5 comdat align 2 {
entry:
  %retval = alloca i32, align 4
  %this.addr = alloca ptr, align 8
  store ptr %this, ptr %this.addr, align 8
  %this1 = load ptr, ptr %this.addr, align 8
  %m_data = getelementptr inbounds %class.vector.7, ptr %this1, i32 0, i32 0
  %0 = load ptr, ptr %m_data, align 8
  %cmp = icmp eq ptr %0, null
  br i1 %cmp, label %if.then, label %if.end

if.then:                                          ; preds = %entry
  store i32 0, ptr %retval, align 4
  br label %return

if.end:                                           ; preds = %entry
  %m_data2 = getelementptr inbounds %class.vector.7, ptr %this1, i32 0, i32 0
  %1 = load ptr, ptr %m_data2, align 8
  %arrayidx = getelementptr inbounds i32, ptr %1, i64 -1
  %2 = load i32, ptr %arrayidx, align 4
  store i32 %2, ptr %retval, align 4
  br label %return

return:                                           ; preds = %if.end, %if.then
  %3 = load i32, ptr %retval, align 4
  ret i32 %3
}

; Function Attrs: mustprogress uwtable
define linkonce_odr hidden void @_ZN6vectorI7obj_mapI4expr10ptr_vectorIN6spacer10model_nodeEEELb1EjE16destroy_elementsEv(ptr noundef nonnull align 8 dereferenceable(8) %this) #4 comdat align 2 {
entry:
  %this.addr = alloca ptr, align 8
  store ptr %this, ptr %this.addr, align 8
  %this1 = load ptr, ptr %this.addr, align 8
  %m_data = getelementptr inbounds %class.vector.7, ptr %this1, i32 0, i32 0
  %0 = load ptr, ptr %m_data, align 8
  %call = call noundef i32 @_ZNK6vectorI7obj_mapI4expr10ptr_vectorIN6spacer10model_nodeEEELb1EjE4sizeEv(ptr noundef nonnull align 8 dereferenceable(8) %this1)
  %call2 = call noundef ptr @_ZSt9destroy_nIP7obj_mapI4expr10ptr_vectorIN6spacer10model_nodeEEEjET_S8_T0_(ptr noundef %0, i32 noundef %call)
  ret void
}

; Function Attrs: mustprogress uwtable
define linkonce_odr hidden void @_ZN6vectorI7obj_mapI4expr10ptr_vectorIN6spacer10model_nodeEEELb1EjE5resetEv(ptr noundef nonnull align 8 dereferenceable(8) %this) #4 comdat align 2 {
entry:
  %this.addr = alloca ptr, align 8
  store ptr %this, ptr %this.addr, align 8
  %this1 = load ptr, ptr %this.addr, align 8
  %m_data = getelementptr inbounds %class.vector.7, ptr %this1, i32 0, i32 0
  %0 = load ptr, ptr %m_data, align 8
  %tobool = icmp ne ptr %0, null
  br i1 %tobool, label %if.then, label %if.end

if.then:                                          ; preds = %entry
  call void @_ZN6vectorI7obj_mapI4expr10ptr_vectorIN6spacer10model_nodeEEELb1EjE16destroy_elementsEv(ptr noundef nonnull align 8 dereferenceable(8) %this1)
  %m_data2 = getelementptr inbounds %class.vector.7, ptr %this1, i32 0, i32 0
  %1 = load ptr, ptr %m_data2, align 8
  %arrayidx = getelementptr inbounds i32, ptr %1, i64 -1
  store i32 0, ptr %arrayidx, align 4
  br label %if.end

if.end:                                           ; preds = %if.then, %entry
  ret void
}

; Function Attrs: mustprogress uwtable
define hidden void @_ZN6spacer12model_search5resetEv(ptr noundef nonnull align 8 dereferenceable(32) %this) #4 align 2 {
entry:
  %this.addr = alloca ptr, align 8
  store ptr %this, ptr %this.addr, align 8
  %this1 = load ptr, ptr %this.addr, align 8
  %m_root = getelementptr inbounds %"class.spacer::model_search", ptr %this1, i32 0, i32 1
  %0 = load ptr, ptr %m_root, align 8
  %tobool = icmp ne ptr %0, null
  br i1 %tobool, label %if.then, label %if.end

if.then:                                          ; preds = %entry
  %m_root2 = getelementptr inbounds %"class.spacer::model_search", ptr %this1, i32 0, i32 1
  %1 = load ptr, ptr %m_root2, align 8
  call void @_ZN6spacer12model_search14erase_childrenERNS_10model_nodeEb(ptr noundef nonnull align 8 dereferenceable(32) %this1, ptr noundef nonnull align 8 dereferenceable(49) %1, i1 noundef zeroext false)
  %m_root3 = getelementptr inbounds %"class.spacer::model_search", ptr %this1, i32 0, i32 1
  %2 = load ptr, ptr %m_root3, align 8
  call void @_ZN6spacer12model_search11remove_nodeEPNS_10model_nodeEb(ptr noundef nonnull align 8 dereferenceable(32) %this1, ptr noundef %2, i1 noundef zeroext false)
  %m_root4 = getelementptr inbounds %"class.spacer::model_search", ptr %this1, i32 0, i32 1
  %3 = load ptr, ptr %m_root4, align 8
  call void @_Z7deallocIN6spacer10model_nodeEEvPT_(ptr noundef %3)
  %m_root5 = getelementptr inbounds %"class.spacer::model_search", ptr %this1, i32 0, i32 1
  store ptr null, ptr %m_root5, align 8
  br label %if.end

if.end:                                           ; preds = %if.then, %entry
  %m_cache = getelementptr inbounds %"class.spacer::model_search", ptr %this1, i32 0, i32 3
  call void @_ZN6vectorI7obj_mapI4expr10ptr_vectorIN6spacer10model_nodeEEELb1EjE5resetEv(ptr noundef nonnull align 8 dereferenceable(8) %m_cache)
  ret void
}