; Function Attrs: mustprogress uwtable
define hidden void @_ZN6spacer12model_search5resetEv(ptr noundef nonnull align 8 dereferenceable(32) %this) local_unnamed_addr #3 align 2 personality ptr @__gxx_personality_v0 {
entry:
  %m_root = getelementptr inbounds i8, ptr %this, i64 8
  %0 = load ptr, ptr %m_root, align 8
  %tobool.not = icmp eq ptr %0, null
  br i1 %tobool.not, label %if.end, label %if.then

if.then:                                          ; preds = %entry
  tail call void @_ZN6spacer12model_search14erase_childrenERNS_10model_nodeEb(ptr noundef nonnull align 8 dereferenceable(32) %this, ptr noundef nonnull align 8 dereferenceable(49) %0, i1 noundef zeroext false)
  %1 = load ptr, ptr %m_root, align 8
  tail call void @_ZN6spacer12model_search11remove_nodeEPNS_10model_nodeEb(ptr noundef nonnull align 8 dereferenceable(32) %this, ptr noundef %1, i1 noundef zeroext false)
  %2 = load ptr, ptr %m_root, align 8
  tail call void @_Z7deallocIN6spacer10model_nodeEEvPT_(ptr noundef %2)
  store ptr null, ptr %m_root, align 8
  br label %if.end

if.end:                                           ; preds = %if.then, %entry
  %m_cache = getelementptr inbounds i8, ptr %this, i64 24
  %3 = load ptr, ptr %m_cache, align 8
  %tobool.not.i = icmp eq ptr %3, null
  br i1 %tobool.not.i, label %_ZN6vectorI7obj_mapI4expr10ptr_vectorIN6spacer10model_nodeEEELb1EjE5resetEv.exit, label %_ZNK6vectorI7obj_mapI4expr10ptr_vectorIN6spacer10model_nodeEEELb1EjE4sizeEv.exit.i.i

_ZNK6vectorI7obj_mapI4expr10ptr_vectorIN6spacer10model_nodeEEELb1EjE4sizeEv.exit.i.i: ; preds = %if.end
  %arrayidx.i.i.i = getelementptr inbounds i8, ptr %3, i64 -4
  %4 = load i32, ptr %arrayidx.i.i.i, align 4
  %cmp.not6.i.i.i.i.i = icmp eq i32 %4, 0
  br i1 %cmp.not6.i.i.i.i.i, label %_ZN6vectorI7obj_mapI4expr10ptr_vectorIN6spacer10model_nodeEEELb1EjE16destroy_elementsEv.exit.i, label %for.body.i.i.i.i.i

for.body.i.i.i.i.i:                               ; preds = %_ZNK6vectorI7obj_mapI4expr10ptr_vectorIN6spacer10model_nodeEEELb1EjE4sizeEv.exit.i.i, %_ZSt8_DestroyI7obj_mapI4expr10ptr_vectorIN6spacer10model_nodeEEEEvPT_.exit.i.i.i.i.i
  %__count.addr.08.i.i.i.i.i = phi i32 [ %dec.i.i.i.i.i, %_ZSt8_DestroyI7obj_mapI4expr10ptr_vectorIN6spacer10model_nodeEEEEvPT_.exit.i.i.i.i.i ], [ %4, %_ZNK6vectorI7obj_mapI4expr10ptr_vectorIN6spacer10model_nodeEEELb1EjE4sizeEv.exit.i.i ]
  %__first.addr.07.i.i.i.i.i = phi ptr [ %incdec.ptr.i.i.i.i.i, %_ZSt8_DestroyI7obj_mapI4expr10ptr_vectorIN6spacer10model_nodeEEEEvPT_.exit.i.i.i.i.i ], [ %3, %_ZNK6vectorI7obj_mapI4expr10ptr_vectorIN6spacer10model_nodeEEELb1EjE4sizeEv.exit.i.i ]
  %5 = load ptr, ptr %__first.addr.07.i.i.i.i.i, align 8
  %m_capacity.i.i.i.i.i.i.i.i.i = getelementptr inbounds i8, ptr %__first.addr.07.i.i.i.i.i, i64 8
  %6 = load i32, ptr %m_capacity.i.i.i.i.i.i.i.i.i, align 8
  %cmp.i.i.i.i.i.i.i.i.i.i = icmp eq ptr %5, null
  br i1 %cmp.i.i.i.i.i.i.i.i.i.i, label %_ZSt8_DestroyI7obj_mapI4expr10ptr_vectorIN6spacer10model_nodeEEEEvPT_.exit.i.i.i.i.i, label %for.cond.preheader.i.i.i.i.i.i.i.i.i.i

for.cond.preheader.i.i.i.i.i.i.i.i.i.i:           ; preds = %for.body.i.i.i.i.i
  %cmp15.not.i.i.i.i.i.i.i.i.i.i = icmp eq i32 %6, 0
  br i1 %cmp15.not.i.i.i.i.i.i.i.i.i.i, label %for.end.i.i.i.i.i.i.i.i.i.i, label %for.body.i.i.i.i.i.i.i.i.i.i

for.body.i.i.i.i.i.i.i.i.i.i:                     ; preds = %for.cond.preheader.i.i.i.i.i.i.i.i.i.i, %_ZN7obj_mapI4expr10ptr_vectorIN6spacer10model_nodeEEE13obj_map_entryD2Ev.exit.i.i.i.i.i.i.i.i.i.i
  %i.07.i.i.i.i.i.i.i.i.i.i = phi i32 [ %inc.i.i.i.i.i.i.i.i.i.i, %_ZN7obj_mapI4expr10ptr_vectorIN6spacer10model_nodeEEE13obj_map_entryD2Ev.exit.i.i.i.i.i.i.i.i.i.i ], [ 0, %for.cond.preheader.i.i.i.i.i.i.i.i.i.i ]
  %curr.06.i.i.i.i.i.i.i.i.i.i = phi ptr [ %incdec.ptr.i.i.i.i.i.i.i.i.i.i, %_ZN7obj_mapI4expr10ptr_vectorIN6spacer10model_nodeEEE13obj_map_entryD2Ev.exit.i.i.i.i.i.i.i.i.i.i ], [ %5, %for.cond.preheader.i.i.i.i.i.i.i.i.i.i ]
  %m_value.i.i.i.i.i.i.i.i.i.i.i.i = getelementptr inbounds i8, ptr %curr.06.i.i.i.i.i.i.i.i.i.i, i64 8
  %7 = load ptr, ptr %m_value.i.i.i.i.i.i.i.i.i.i.i.i, align 8
  %tobool.not.i.i.i.i.i.i.i.i.i.i.i.i.i.i.i = icmp eq ptr %7, null
  br i1 %tobool.not.i.i.i.i.i.i.i.i.i.i.i.i.i.i.i, label %_ZN7obj_mapI4expr10ptr_vectorIN6spacer10model_nodeEEE13obj_map_entryD2Ev.exit.i.i.i.i.i.i.i.i.i.i, label %if.then.i.i.i.i.i.i.i.i.i.i.i.i.i.i.i

if.then.i.i.i.i.i.i.i.i.i.i.i.i.i.i.i:            ; preds = %for.body.i.i.i.i.i.i.i.i.i.i
  %add.ptr.i.i.i.i.i.i.i.i.i.i.i.i.i.i.i.i = getelementptr inbounds i8, ptr %7, i64 -8
  invoke void @_ZN6memory10deallocateEPv(ptr noundef nonnull %add.ptr.i.i.i.i.i.i.i.i.i.i.i.i.i.i.i.i)
          to label %_ZN7obj_mapI4expr10ptr_vectorIN6spacer10model_nodeEEE13obj_map_entryD2Ev.exit.i.i.i.i.i.i.i.i.i.i unwind label %terminate.lpad.i.i.i.i.i.i.i.i.i.i.i.i.i.i

terminate.lpad.i.i.i.i.i.i.i.i.i.i.i.i.i.i:       ; preds = %if.then.i.i.i.i.i.i.i.i.i.i.i.i.i.i.i
  %8 = landingpad { ptr, i32 }
          catch ptr null
  %9 = extractvalue { ptr, i32 } %8, 0
  tail call void @__clang_call_terminate(ptr %9) #19
  unreachable

_ZN7obj_mapI4expr10ptr_vectorIN6spacer10model_nodeEEE13obj_map_entryD2Ev.exit.i.i.i.i.i.i.i.i.i.i: ; preds = %if.then.i.i.i.i.i.i.i.i.i.i.i.i.i.i.i, %for.body.i.i.i.i.i.i.i.i.i.i
  %inc.i.i.i.i.i.i.i.i.i.i = add nuw i32 %i.07.i.i.i.i.i.i.i.i.i.i, 1
  %incdec.ptr.i.i.i.i.i.i.i.i.i.i = getelementptr inbounds i8, ptr %curr.06.i.i.i.i.i.i.i.i.i.i, i64 16
  %exitcond.not.i.i.i.i.i.i.i.i.i.i = icmp eq i32 %inc.i.i.i.i.i.i.i.i.i.i, %6
  br i1 %exitcond.not.i.i.i.i.i.i.i.i.i.i, label %for.end.i.i.i.i.i.i.i.i.i.i, label %for.body.i.i.i.i.i.i.i.i.i.i, !llvm.loop !8

for.end.i.i.i.i.i.i.i.i.i.i:                      ; preds = %_ZN7obj_mapI4expr10ptr_vectorIN6spacer10model_nodeEEE13obj_map_entryD2Ev.exit.i.i.i.i.i.i.i.i.i.i, %for.cond.preheader.i.i.i.i.i.i.i.i.i.i
  invoke void @_ZN6memory10deallocateEPv(ptr noundef nonnull %5)
          to label %_ZSt8_DestroyI7obj_mapI4expr10ptr_vectorIN6spacer10model_nodeEEEEvPT_.exit.i.i.i.i.i unwind label %terminate.lpad.i.i.i.i.i.i.i.i

terminate.lpad.i.i.i.i.i.i.i.i:                   ; preds = %for.end.i.i.i.i.i.i.i.i.i.i
  %10 = landingpad { ptr, i32 }
          catch ptr null
  %11 = extractvalue { ptr, i32 } %10, 0
  tail call void @__clang_call_terminate(ptr %11) #19
  unreachable

_ZSt8_DestroyI7obj_mapI4expr10ptr_vectorIN6spacer10model_nodeEEEEvPT_.exit.i.i.i.i.i: ; preds = %for.end.i.i.i.i.i.i.i.i.i.i, %for.body.i.i.i.i.i
  store ptr null, ptr %__first.addr.07.i.i.i.i.i, align 8
  %incdec.ptr.i.i.i.i.i = getelementptr inbounds i8, ptr %__first.addr.07.i.i.i.i.i, i64 24
  %dec.i.i.i.i.i = add i32 %__count.addr.08.i.i.i.i.i, -1
  %cmp.not.i.i.i.i.i = icmp eq i32 %dec.i.i.i.i.i, 0
  br i1 %cmp.not.i.i.i.i.i, label %_ZN6vectorI7obj_mapI4expr10ptr_vectorIN6spacer10model_nodeEEELb1EjE16destroy_elementsEv.exit.loopexit.i, label %for.body.i.i.i.i.i, !llvm.loop !9

_ZN6vectorI7obj_mapI4expr10ptr_vectorIN6spacer10model_nodeEEELb1EjE16destroy_elementsEv.exit.loopexit.i: ; preds = %_ZSt8_DestroyI7obj_mapI4expr10ptr_vectorIN6spacer10model_nodeEEEEvPT_.exit.i.i.i.i.i
  %.pre.i = load ptr, ptr %m_cache, align 8
  br label %_ZN6vectorI7obj_mapI4expr10ptr_vectorIN6spacer10model_nodeEEELb1EjE16destroy_elementsEv.exit.i

_ZN6vectorI7obj_mapI4expr10ptr_vectorIN6spacer10model_nodeEEELb1EjE16destroy_elementsEv.exit.i: ; preds = %_ZN6vectorI7obj_mapI4expr10ptr_vectorIN6spacer10model_nodeEEELb1EjE16destroy_elementsEv.exit.loopexit.i, %_ZNK6vectorI7obj_mapI4expr10ptr_vectorIN6spacer10model_nodeEEELb1EjE4sizeEv.exit.i.i
  %12 = phi ptr [ %.pre.i, %_ZN6vectorI7obj_mapI4expr10ptr_vectorIN6spacer10model_nodeEEELb1EjE16destroy_elementsEv.exit.loopexit.i ], [ %3, %_ZNK6vectorI7obj_mapI4expr10ptr_vectorIN6spacer10model_nodeEEELb1EjE4sizeEv.exit.i.i ]
  %arrayidx.i = getelementptr inbounds i8, ptr %12, i64 -4
  store i32 0, ptr %arrayidx.i, align 4
  br label %_ZN6vectorI7obj_mapI4expr10ptr_vectorIN6spacer10model_nodeEEELb1EjE5resetEv.exit

_ZN6vectorI7obj_mapI4expr10ptr_vectorIN6spacer10model_nodeEEELb1EjE5resetEv.exit: ; preds = %if.end, %_ZN6vectorI7obj_mapI4expr10ptr_vectorIN6spacer10model_nodeEEELb1EjE16destroy_elementsEv.exit.i
  ret void
}